target datalayout = "e-m:e-p270:32:32-p271:32:32-p272:64:64-i64:64-i128:128-f80:128-n8:16:32:64-S128"
target triple = "x86_64-pc-linux-gnu"

@.str.1 = private unnamed_addr constant [15 x i8] c"functioncmds.c\00", align 1
@.str.59 = private unnamed_addr constant [9 x i8] c"internal\00", align 1
@.str.103 = private unnamed_addr constant [27 x i8] c"function %s does not exist\00", align 1
@__func__.interpret_func_support = private unnamed_addr constant [23 x i8] c"interpret_func_support\00", align 1
@.str.104 = private unnamed_addr constant [40 x i8] c"support function %s must return type %s\00", align 1
@.str.105 = private unnamed_addr constant [48 x i8] c"must be superuser to specify a support function\00", align 1

; Function Attrs: nounwind uwtable
define internal i32 @interpret_func_support(ptr noundef %0) #0 {
  %2 = alloca ptr, align 8
  %3 = alloca ptr, align 8
  %4 = alloca i32, align 4
  %5 = alloca [1 x i32], align 4
  store ptr %0, ptr %2, align 8
  call void @llvm.lifetime.start.p0(i64 8, ptr %3) #9
  %6 = load ptr, ptr %2, align 8
  %7 = call ptr @defGetQualifiedName(ptr noundef %6)
  store ptr %7, ptr %3, align 8
  call void @llvm.lifetime.start.p0(i64 4, ptr %4) #9
  call void @llvm.lifetime.start.p0(i64 4, ptr %5) #9
  %8 = getelementptr inbounds [1 x i32], ptr %5, i64 0, i64 0
  store i32 2281, ptr %8, align 4
  %9 = load ptr, ptr %3, align 8
  %10 = getelementptr inbounds [1 x i32], ptr %5, i64 0, i64 0
  %11 = call i32 @LookupFuncName(ptr noundef %9, i32 noundef 1, ptr noundef %10, i1 noundef zeroext true)
  store i32 %11, ptr %4, align 4
  %12 = load i32, ptr %4, align 4
  %13 = icmp ne i32 %12, 0
  br i1 %13, label %29, label %14

14:                                               ; preds = %1
  br label %15

15:                                               ; preds = %14
  br i1 true, label %16, label %18

16:                                               ; preds = %15
  %17 = call zeroext i1 @errstart_cold(i32 noundef 21, ptr noundef null) #10
  br i1 %17, label %20, label %26

18:                                               ; preds = %15
  %19 = call zeroext i1 @errstart(i32 noundef 21, ptr noundef null)
  br i1 %19, label %20, label %26

20:                                               ; preds = %18, %16
  %21 = call i32 @errcode(i32 noundef 52461700)
  %22 = load ptr, ptr %3, align 8
  %23 = getelementptr inbounds [1 x i32], ptr %5, i64 0, i64 0
  %24 = call ptr @func_signature_string(ptr noundef %22, i32 noundef 1, ptr noundef null, ptr noundef %23)
  %25 = call i32 (ptr, ...) @errmsg(ptr noundef @.str.103, ptr noundef %24)
  call void @errfinish(ptr noundef @.str.1, i32 noundef 702, ptr noundef @__func__.interpret_func_support)
  br label %26

26:                                               ; preds = %20, %18, %16
  unreachable

27:                                               ; No predecessors!
  br label %28

28:                                               ; preds = %27
  br label %29

29:                                               ; preds = %28, %1
  %30 = load i32, ptr %4, align 4
  %31 = call i32 @get_func_rettype(i32 noundef %30)
  %32 = icmp ne i32 %31, 2281
  br i1 %32, label %33, label %47

33:                                               ; preds = %29
  br label %34

34:                                               ; preds = %33
  br i1 true, label %35, label %37

35:                                               ; preds = %34
  %36 = call zeroext i1 @errstart_cold(i32 noundef 21, ptr noundef null) #10
  br i1 %36, label %39, label %44

37:                                               ; preds = %34
  %38 = call zeroext i1 @errstart(i32 noundef 21, ptr noundef null)
  br i1 %38, label %39, label %44

39:                                               ; preds = %37, %35
  %40 = call i32 @errcode(i32 noundef 117833860)
  %41 = load ptr, ptr %3, align 8
  %42 = call ptr @NameListToString(ptr noundef %41)
  %43 = call i32 (ptr, ...) @errmsg(ptr noundef @.str.104, ptr noundef %42, ptr noundef @.str.59)
  call void @errfinish(ptr noundef @.str.1, i32 noundef 708, ptr noundef @__func__.interpret_func_support)
  br label %44

44:                                               ; preds = %39, %37, %35
  unreachable

45:                                               ; No predecessors!
  br label %46

46:                                               ; preds = %45
  br label %47

47:                                               ; preds = %46, %29
  %48 = call zeroext i1 @superuser()
  br i1 %48, label %61, label %49

49:                                               ; preds = %47
  br label %50

50:                                               ; preds = %49
  br i1 true, label %51, label %53

51:                                               ; preds = %50
  %52 = call zeroext i1 @errstart_cold(i32 noundef 21, ptr noundef null) #10
  br i1 %52, label %55, label %58

53:                                               ; preds = %50
  %54 = call zeroext i1 @errstart(i32 noundef 21, ptr noundef null)
  br i1 %54, label %55, label %58

55:                                               ; preds = %53, %51
  %56 = call i32 @errcode(i32 noundef 16797828)
  %57 = call i32 (ptr, ...) @errmsg(ptr noundef @.str.105)
  call void @errfinish(ptr noundef @.str.1, i32 noundef 718, ptr noundef @__func__.interpret_func_support)
  br label %58

58:                                               ; preds = %55, %53, %51
  unreachable

59:                                               ; No predecessors!
  br label %60

60:                                               ; preds = %59
  br label %61

61:                                               ; preds = %60, %47
  %62 = load i32, ptr %4, align 4
  call void @llvm.lifetime.end.p0(i64 4, ptr %5) #9
  call void @llvm.lifetime.end.p0(i64 4, ptr %4) #9
  call void @llvm.lifetime.end.p0(i64 8, ptr %3) #9
  ret i32 %62
}