; Function Attrs: nounwind uwtable
define internal fastcc range(i32 1, 0) i32 @interpret_func_support(ptr noundef nonnull %0) unnamed_addr #0 {
  %2 = alloca [1 x i32], align 4
  %3 = tail call ptr @defGetQualifiedName(ptr noundef nonnull %0) #8
  call void @llvm.lifetime.start.p0(i64 4, ptr nonnull %2) #8
  store i32 2281, ptr %2, align 4
  %4 = call i32 @LookupFuncName(ptr noundef %3, i32 noundef 1, ptr noundef nonnull %2, i1 noundef zeroext true) #8
  %.not = icmp eq i32 %4, 0
  br i1 %.not, label %5, label %10

5:                                                ; preds = %1
  %6 = call zeroext i1 @errstart_cold(i32 noundef 21, ptr noundef null) #9
  call void @llvm.assume(i1 %6)
  %7 = call i32 @errcode(i32 noundef 52461700) #8
  %8 = call ptr @func_signature_string(ptr noundef %3, i32 noundef 1, ptr noundef null, ptr noundef nonnull %2) #8
  %9 = call i32 (ptr, ...) @errmsg(ptr noundef nonnull @.str.103, ptr noundef %8) #8
  call void @errfinish(ptr noundef nonnull @.str.1, i32 noundef 702, ptr noundef nonnull @__func__.interpret_func_support) #8
  unreachable

10:                                               ; preds = %1
  %11 = call i32 @get_func_rettype(i32 noundef %4) #8
  %.not6 = icmp eq i32 %11, 2281
  br i1 %.not6, label %17, label %12

12:                                               ; preds = %10
  %13 = call zeroext i1 @errstart_cold(i32 noundef 21, ptr noundef null) #9
  call void @llvm.assume(i1 %13)
  %14 = call i32 @errcode(i32 noundef 117833860) #8
  %15 = call ptr @NameListToString(ptr noundef %3) #8
  %16 = call i32 (ptr, ...) @errmsg(ptr noundef nonnull @.str.104, ptr noundef %15, ptr noundef nonnull @.str.59) #8
  call void @errfinish(ptr noundef nonnull @.str.1, i32 noundef 708, ptr noundef nonnull @__func__.interpret_func_support) #8
  unreachable

17:                                               ; preds = %10
  %18 = call zeroext i1 @superuser() #8
  br i1 %18, label %23, label %19

19:                                               ; preds = %17
  %20 = call zeroext i1 @errstart_cold(i32 noundef 21, ptr noundef null) #9
  call void @llvm.assume(i1 %20)
  %21 = call i32 @errcode(i32 noundef 16797828) #8
  %22 = call i32 (ptr, ...) @errmsg(ptr noundef nonnull @.str.105) #8
  call void @errfinish(ptr noundef nonnull @.str.1, i32 noundef 718, ptr noundef nonnull @__func__.interpret_func_support) #8
  unreachable

23:                                               ; preds = %17
  call void @llvm.lifetime.end.p0(i64 4, ptr nonnull %2) #8
  ret i32 %4
}